(dp0
Vengine
p1
Vpdflatex
p2
sVpackages
p3
c__builtin__
set
p4
((lp5
Vamsmath
p6
aVpgfplots
p7
aVpgfplotstable
p8
atp9
Rp10
sVfiles_with_guttermarks
p11
g4
((lp12
S'wellcond_time.tex'
p13
atp14
Rp15
sVsynctex
p16
I01
s.